(lp0
S'masturbates way too much.'
p1
aS'has tattoos all over their ass.'
p2
aS'needs a blow job.'
p3
aS'masturbates to infomercials.'
p4
aS"are green like Jim's balls."
p5
aS"shows it all off and doesn't care."
p6
aS"can't stop Sperling."
p7
aS'stares at goats.'
p8
aS'are bruised and slutty like Courtney Love.'
p9
aS'secretly loves bubbles'
p10
aS'swears the baby isnt his'
p11
aS"can't get enough of Dick Cheney."
p12
aS'spooned with a cow'
p13
aS'got off watching the Muppet Christmas Movie.'
p14
aS'would be a great drag queen.'
p15
aS'is really a ROBOT!'
p16
aS'is a wolf in sheeps clothing.'
p17
aS'ate all my goldfish.'
p18
aS'used me for cheap sex.'
p19
aS'is made out of green play-doh.'
p20
aS'wishes they dated Pam Anderson.'
p21
aS'is the true son of God.'
p22
aS"really shouldn't sing, EVER!"
p23
aS'likes to get funky in their underwear.'
p24
aS'proudly goes commando in style.'
p25
aS'dances naked in front of the mirror.'
p26
aS'is a naughty co-oper.'
p27
aS'is really a dirty DIRTY girl.'
p28
aS'kicks it co-op style.'
p29
aS'are taking to the streets.'
p30
aS'will start the revolution!'
p31
aS'track pack quack'
p32
aS'will die a grusome death.'
p33
aS'is a pimp.'
p34
aS'prays for armageddon.'
p35
aS'needs an enema.'
p36
aS'moved to Lawrence, Kansas.'
p37
aS'snapps\xc2\xa0his fingers and poops hard'
p38
aS'lick my balles'
p39
aS'is a tattooed freak.'
p40
aS'create fabulous artwork with their penis.'
p41
aS'will give birth to a chipmunk'
p42
aS'pees green soup'
p43
aS'likes to sniff armpits.'
p44
aS'gets hot about tofu.'
p45
aS'got stuck that way.'
p46
aS"could teach you, but I'd have to charge."
p47
aS'gets Zoe all gooey.'
p48
aS'keeps me up at night.'
p49
aS'rules the school.'
p50
aS'sang dirges in the dark the day the music died.'
p51
aS'squeals like a piggie'
p52
aS'suck my left one!'
p53
aS'tastes like chicken.'
p54
aS'want my sausage.'
p55
aS"can't stop till you get enough"
p56
aS'is made of green cheese.'
p57
aS'looks at butts a lot'
p58
aS'dance barefoot in the grass'
p59
aS"likes to wear women's underwear"
p60
aS'eats his medicine in cheese'
p61
aS'is having a philosophical debate with Jimmy Hoffa.'
p62
aS'turns your tongue blue'
p63
aS'is built to please'
p64
aS'is on FIRE!'
p65
aS'bite the heads off of stuffed muppets.'
p66
aS'has nasty breath and needs an Altoid'
p67
aS'will do 2 guys'
p68
aS'was conquered by a housefly'
p69
aS'will fart and die'
p70
aS'will have to have fun with Michael Jackson to please himself'
p71
aS"must be George Bush's bitch"
p72
aS'must smack that'
p73
aS'do three guys'
p74
aS'masturbates to gay porn'
p75
aS"masturbates to his brother's picture"
p76
aS'has 5 teath and know head'
p77
aS'smells like scott'
p78
aS'do mason underwood with scott'
p79
aS'thinks mason smells good'
p80
aS'is gana get it at your moms funeral !! eat pie mother donkers'
p81
aS'will unearth a bonanza gold claim'
p82
aS'stuck their tongue in your ear'
p83
aS"says 'im as nimble as a forest creature'"
p84
aS'is related to the possum'
p85
aS'belongs to a union of dummy makers'
p86
aS'travels in style'
p87
aS'plays poker before double dating'
p88
aS'fucked me doggystyle in the outhouse'
p89
aS'is a curry-eating indian that plays cricket'
p90
aS'is Hitler reincarnated'
p91
aS'is an illegal immigrant running from the IRS'
p92
aS'eats moldy cheese.'
p93
aS'will eat tainted jelly beans.'
p94
aS'will poop on you.'
p95
aS"wants milk from the milkman's wife's tits."
p96
aS'IS A STUPID TEXAN'
p97
aS'is cooler than casey'
p98
aS'puts curry on dicks before he sucks it'
p99
aS'is gayer than eric'
p100
aS'are gay lovers'
p101
aS'smells like shit'
p102
aS'sucks dicks for $$$$'
p103
aS"hot-carled your girlfriend's face."
p104
aS'has a secret crush on Bob Saget'
p105
aS'has fucked your mom'
p106
aS'lets his dog lick his balls'
p107
aS"stuck it in your mom's butt"
p108
aS'was shaking into the dicky'
p109
aS'kissed my girlfriends ass'
p110
aS'read the children a story'
p111
aS'undertakes the magical sketch'
p112
aS'are on the internet'
p113
aS'exists before a suspicion'
p114
aS'fits your body'
p115
a.